#include <math.h>
#include <stdio.h>
#include <stdlib.h>
#include <string.h>

int main()
{
   int n,i,a,j,m;
   scanf("%d",&n);
   char A[260],B[n][260];
   for(i=0;i<n;i++)
   {
       scanf("%s",&A);
       a=strlen(A);
       for(j=0;j<a;j++)
       {
           if(A[j]=='A')
           {
               B[i][j]='T';
           }
            if(A[j]=='T')
           {
               B[i][j]='A';
           }
            if(A[j]=='C')
           {
               B[i][j]='G';
           }
            if(A[j]=='G')
           {
               B[i][j]='C';
           }
       }
       B[i][j]='\0';

   }
    for(m=0;m<n-1;m++)
    {
        printf("%s\n",B[m]);
    }
     printf("%s",B[n-1]);

    return 0;

}
